target datalayout = "e-m:e-p270:32:32-p271:32:32-p272:64:64-i64:64-i128:128-f80:128-n8:16:32:64-S128"
target triple = "x86_64-pc-linux-gnu"

%"class.llvm::StringRef" = type { ptr, i64 }
%"class.llvm::SmallVectorBase" = type { ptr, i32, i32 }
%"class.llvm::DwarfUnit" = type { %"class.llvm::DIEUnit", i32, ptr, %"class.llvm::BumpPtrAllocatorImpl", ptr, ptr, ptr, ptr, ptr, ptr, %"class.llvm::DenseMap", %"class.std::vector", %"class.std::vector.16", %"class.llvm::DenseMap.21" }
%"class.llvm::DIEUnit" = type { ptr, %"class.llvm::DIE", ptr, i64 }
%"class.llvm::DIE" = type { %"struct.llvm::IntrusiveBackListNode", %"class.llvm::DIEValueList", i32, i32, i32, i16, i8, %"class.llvm::IntrusiveBackList.0", %"class.llvm::PointerUnion" }
%"struct.llvm::IntrusiveBackListNode" = type { %"class.llvm::PointerIntPair" }
%"class.llvm::PointerIntPair" = type { %"struct.llvm::detail::PunnedPointer" }
%"struct.llvm::detail::PunnedPointer" = type { [8 x i8] }
%"class.llvm::DIEValueList" = type { %"class.llvm::IntrusiveBackList" }
%"class.llvm::IntrusiveBackList" = type { %"struct.llvm::IntrusiveBackListBase" }
%"struct.llvm::IntrusiveBackListBase" = type { ptr }
%"class.llvm::IntrusiveBackList.0" = type { %"struct.llvm::IntrusiveBackListBase" }
%"class.llvm::PointerUnion" = type { %"class.llvm::pointer_union_detail::PointerUnionMembers" }
%"class.llvm::pointer_union_detail::PointerUnionMembers" = type { %"class.llvm::pointer_union_detail::PointerUnionMembers.1" }
%"class.llvm::pointer_union_detail::PointerUnionMembers.1" = type { %"class.llvm::pointer_union_detail::PointerUnionMembers.2" }
%"class.llvm::pointer_union_detail::PointerUnionMembers.2" = type { %"class.llvm::PointerIntPair.3" }
%"class.llvm::PointerIntPair.3" = type { %"struct.llvm::detail::PunnedPointer.4" }
%"struct.llvm::detail::PunnedPointer.4" = type { [8 x i8] }
%"class.llvm::BumpPtrAllocatorImpl" = type { ptr, ptr, %"class.llvm::SmallVector.6", %"class.llvm::SmallVector.11", i64, i64 }
%"class.llvm::SmallVector.6" = type { %"class.llvm::SmallVectorImpl.7", %"struct.llvm::SmallVectorStorage.10" }
%"class.llvm::SmallVectorImpl.7" = type { %"class.llvm::SmallVectorTemplateBase.8" }
%"class.llvm::SmallVectorTemplateBase.8" = type { %"class.llvm::SmallVectorTemplateCommon.9" }
%"class.llvm::SmallVectorTemplateCommon.9" = type { %"class.llvm::SmallVectorBase" }
%"struct.llvm::SmallVectorStorage.10" = type { [32 x i8] }
%"class.llvm::SmallVector.11" = type { %"class.llvm::SmallVectorImpl.12" }
%"class.llvm::SmallVectorImpl.12" = type { %"class.llvm::SmallVectorTemplateBase.13" }
%"class.llvm::SmallVectorTemplateBase.13" = type { %"class.llvm::SmallVectorTemplateCommon.14" }
%"class.llvm::SmallVectorTemplateCommon.14" = type { %"class.llvm::SmallVectorBase" }
%"class.llvm::DenseMap" = type <{ ptr, i32, i32, i32, [4 x i8] }>
%"class.std::vector" = type { %"struct.std::_Vector_base" }
%"struct.std::_Vector_base" = type { %"struct.std::_Vector_base<llvm::DIEBlock *, std::allocator<llvm::DIEBlock *>>::_Vector_impl" }
%"struct.std::_Vector_base<llvm::DIEBlock *, std::allocator<llvm::DIEBlock *>>::_Vector_impl" = type { %"struct.std::_Vector_base<llvm::DIEBlock *, std::allocator<llvm::DIEBlock *>>::_Vector_impl_data" }
%"struct.std::_Vector_base<llvm::DIEBlock *, std::allocator<llvm::DIEBlock *>>::_Vector_impl_data" = type { ptr, ptr, ptr }
%"class.std::vector.16" = type { %"struct.std::_Vector_base.17" }
%"struct.std::_Vector_base.17" = type { %"struct.std::_Vector_base<llvm::DIELoc *, std::allocator<llvm::DIELoc *>>::_Vector_impl" }
%"struct.std::_Vector_base<llvm::DIELoc *, std::allocator<llvm::DIELoc *>>::_Vector_impl" = type { %"struct.std::_Vector_base<llvm::DIELoc *, std::allocator<llvm::DIELoc *>>::_Vector_impl_data" }
%"struct.std::_Vector_base<llvm::DIELoc *, std::allocator<llvm::DIELoc *>>::_Vector_impl_data" = type { ptr, ptr, ptr }
%"class.llvm::DenseMap.21" = type <{ ptr, i32, i32, i32, [4 x i8] }>
%"class.llvm::StringMapImpl" = type { ptr, i32, i32, i32, i32 }
%"class.llvm::DenseMap.37" = type <{ ptr, i32, i32, i32, [4 x i8] }>
%"class.llvm::DenseMap.40" = type <{ ptr, i32, i32, i32, [4 x i8] }>
%"class.llvm::DwarfDebug" = type <{ %"class.llvm::DebugHandlerBase", %"class.llvm::BumpPtrAllocatorImpl", %"class.llvm::MapVector.208", %"class.llvm::DenseMap.217", %"class.std::vector.220", %"class.llvm::DenseMap.225", %"class.llvm::SmallVector.228", %"class.llvm::DebugLocStream", %"class.llvm::SmallSetVector", %"class.llvm::DenseMap.263", ptr, ptr, %"class.llvm::StringRef", %"class.llvm::DwarfFile", %"class.llvm::DenseMap.289", %"class.llvm::DenseMap.292", %"class.llvm::SmallVector.295", i32, i8, i8, i8, i8, i8, i8, i8, i8, i8, i8, i8, i8, i32, i32, i8, i8, i8, i8, [4 x i8], %"class.llvm::DwarfFile", %"class.llvm::MCDwarfDwoLineTable", i8, i8, [6 x i8], %"class.llvm::DenseMap.320", %"class.llvm::AddressPool", %"class.llvm::DWARF5AccelTable", %"class.llvm::DWARF5AccelTable", ptr, %"class.llvm::AccelTable.350", %"class.llvm::AccelTable.350", %"class.llvm::AccelTable.350", %"class.llvm::AccelTable.351", i32, [4 x i8] }>
%"class.llvm::DebugHandlerBase" = type { ptr, ptr, ptr, %"class.llvm::DebugLoc", ptr, ptr, %"class.llvm::DebugLoc", ptr, ptr, %"class.llvm::LexicalScopes", %"class.llvm::DbgValueHistoryMap", %"class.llvm::DbgLabelInstrMap", %"class.llvm::DenseMap.202", %"class.llvm::DenseMap.202", %"class.llvm::InstructionOrdering" }
%"class.llvm::DebugLoc" = type { %"class.llvm::TypedTrackingMDRef" }
%"class.llvm::TypedTrackingMDRef" = type { %"class.llvm::TrackingMDRef" }
%"class.llvm::TrackingMDRef" = type { ptr }
%"class.llvm::LexicalScopes" = type { ptr, %"class.std::unordered_map", %"class.std::unordered_map.161", %"class.std::unordered_map", %"class.llvm::SmallVector.179", ptr, %"class.llvm::DenseMap.184" }
%"class.std::unordered_map.161" = type { %"class.std::_Hashtable.162" }
%"class.std::_Hashtable.162" = type { ptr, i64, %"struct.std::__detail::_Hash_node_base", i64, %"struct.std::__detail::_Prime_rehash_policy", ptr }
%"struct.std::__detail::_Hash_node_base" = type { ptr }
%"struct.std::__detail::_Prime_rehash_policy" = type { float, i64 }
%"class.std::unordered_map" = type { %"class.std::_Hashtable" }
%"class.std::_Hashtable" = type { ptr, i64, %"struct.std::__detail::_Hash_node_base", i64, %"struct.std::__detail::_Prime_rehash_policy", ptr }
%"class.llvm::SmallVector.179" = type { %"class.llvm::SmallVectorImpl.180", %"struct.llvm::SmallVectorStorage.183" }
%"class.llvm::SmallVectorImpl.180" = type { %"class.llvm::SmallVectorTemplateBase.181" }
%"class.llvm::SmallVectorTemplateBase.181" = type { %"class.llvm::SmallVectorTemplateCommon.182" }
%"class.llvm::SmallVectorTemplateCommon.182" = type { %"class.llvm::SmallVectorBase" }
%"struct.llvm::SmallVectorStorage.183" = type { [32 x i8] }
%"class.llvm::DenseMap.184" = type <{ ptr, i32, i32, i32, [4 x i8] }>
%"class.llvm::DbgValueHistoryMap" = type { %"class.llvm::MapVector.187" }
%"class.llvm::MapVector.187" = type { %"class.llvm::DenseMap.188", %"class.llvm::SmallVector.191" }
%"class.llvm::DenseMap.188" = type <{ ptr, i32, i32, i32, [4 x i8] }>
%"class.llvm::SmallVector.191" = type { %"class.llvm::SmallVectorImpl.192" }
%"class.llvm::SmallVectorImpl.192" = type { %"class.llvm::SmallVectorTemplateBase.193" }
%"class.llvm::SmallVectorTemplateBase.193" = type { %"class.llvm::SmallVectorTemplateCommon.194" }
%"class.llvm::SmallVectorTemplateCommon.194" = type { %"class.llvm::SmallVectorBase" }
%"class.llvm::DbgLabelInstrMap" = type { %"class.llvm::MapVector.196" }
%"class.llvm::MapVector.196" = type { %"class.llvm::DenseMap.188", %"class.llvm::SmallVector.197" }
%"class.llvm::SmallVector.197" = type { %"class.llvm::SmallVectorImpl.198" }
%"class.llvm::SmallVectorImpl.198" = type { %"class.llvm::SmallVectorTemplateBase.199" }
%"class.llvm::SmallVectorTemplateBase.199" = type { %"class.llvm::SmallVectorTemplateCommon.200" }
%"class.llvm::SmallVectorTemplateCommon.200" = type { %"class.llvm::SmallVectorBase" }
%"class.llvm::DenseMap.202" = type <{ ptr, i32, i32, i32, [4 x i8] }>
%"class.llvm::InstructionOrdering" = type { %"class.llvm::DenseMap.205" }
%"class.llvm::DenseMap.205" = type <{ ptr, i32, i32, i32, [4 x i8] }>
%"class.llvm::MapVector.208" = type { %"class.llvm::DenseMap.209", %"class.llvm::SmallVector.212" }
%"class.llvm::DenseMap.209" = type <{ ptr, i32, i32, i32, [4 x i8] }>
%"class.llvm::SmallVector.212" = type { %"class.llvm::SmallVectorImpl.213" }
%"class.llvm::SmallVectorImpl.213" = type { %"class.llvm::SmallVectorTemplateBase.214" }
%"class.llvm::SmallVectorTemplateBase.214" = type { %"class.llvm::SmallVectorTemplateCommon.215" }
%"class.llvm::SmallVectorTemplateCommon.215" = type { %"class.llvm::SmallVectorBase" }
%"class.llvm::DenseMap.217" = type <{ ptr, i32, i32, i32, [4 x i8] }>
%"class.std::vector.220" = type { %"struct.std::_Vector_base.221" }
%"struct.std::_Vector_base.221" = type { %"struct.std::_Vector_base<llvm::SymbolCU, std::allocator<llvm::SymbolCU>>::_Vector_impl" }
%"struct.std::_Vector_base<llvm::SymbolCU, std::allocator<llvm::SymbolCU>>::_Vector_impl" = type { %"struct.std::_Vector_base<llvm::SymbolCU, std::allocator<llvm::SymbolCU>>::_Vector_impl_data" }
%"struct.std::_Vector_base<llvm::SymbolCU, std::allocator<llvm::SymbolCU>>::_Vector_impl_data" = type { ptr, ptr, ptr }
%"class.llvm::DenseMap.225" = type <{ ptr, i32, i32, i32, [4 x i8] }>
%"class.llvm::SmallVector.228" = type { %"class.llvm::SmallVectorImpl.229", %"struct.llvm::SmallVectorStorage.232" }
%"class.llvm::SmallVectorImpl.229" = type { %"class.llvm::SmallVectorTemplateBase.230" }
%"class.llvm::SmallVectorTemplateBase.230" = type { %"class.llvm::SmallVectorTemplateCommon.231" }
%"class.llvm::SmallVectorTemplateCommon.231" = type { %"class.llvm::SmallVectorBase" }
%"struct.llvm::SmallVectorStorage.232" = type { [512 x i8] }
%"class.llvm::DebugLocStream" = type <{ %"class.llvm::SmallVector.233", %"class.llvm::SmallVector.238", %"class.llvm::SmallString", %"class.std::vector.249", ptr, i8, [7 x i8] }>
%"class.llvm::SmallVector.233" = type { %"class.llvm::SmallVectorImpl.234", %"struct.llvm::SmallVectorStorage.237" }
%"class.llvm::SmallVectorImpl.234" = type { %"class.llvm::SmallVectorTemplateBase.235" }
%"class.llvm::SmallVectorTemplateBase.235" = type { %"class.llvm::SmallVectorTemplateCommon.236" }
%"class.llvm::SmallVectorTemplateCommon.236" = type { %"class.llvm::SmallVectorBase" }
%"struct.llvm::SmallVectorStorage.237" = type { [96 x i8] }
%"class.llvm::SmallVector.238" = type { %"class.llvm::SmallVectorImpl.239", %"struct.llvm::SmallVectorStorage.242" }
%"class.llvm::SmallVectorImpl.239" = type { %"class.llvm::SmallVectorTemplateBase.240" }
%"class.llvm::SmallVectorTemplateBase.240" = type { %"class.llvm::SmallVectorTemplateCommon.241" }
%"class.llvm::SmallVectorTemplateCommon.241" = type { %"class.llvm::SmallVectorBase" }
%"struct.llvm::SmallVectorStorage.242" = type { [1024 x i8] }
%"class.llvm::SmallString" = type { %"class.llvm::SmallVector.243" }
%"class.llvm::SmallVector.243" = type { %"class.llvm::SmallVectorImpl.244", %"struct.llvm::SmallVectorStorage.248" }
%"class.llvm::SmallVectorImpl.244" = type { %"class.llvm::SmallVectorTemplateBase.245" }
%"class.llvm::SmallVectorTemplateBase.245" = type { %"class.llvm::SmallVectorTemplateCommon.246" }
%"class.llvm::SmallVectorTemplateCommon.246" = type { %"class.llvm::SmallVectorBase.247" }
%"class.llvm::SmallVectorBase.247" = type { ptr, i64, i64 }
%"struct.llvm::SmallVectorStorage.248" = type { [256 x i8] }
%"class.std::vector.249" = type { %"struct.std::_Vector_base.250" }
%"struct.std::_Vector_base.250" = type { %"struct.std::_Vector_base<std::__cxx11::basic_string<char>, std::allocator<std::__cxx11::basic_string<char>>>::_Vector_impl" }
%"struct.std::_Vector_base<std::__cxx11::basic_string<char>, std::allocator<std::__cxx11::basic_string<char>>>::_Vector_impl" = type { %"struct.std::_Vector_base<std::__cxx11::basic_string<char>, std::allocator<std::__cxx11::basic_string<char>>>::_Vector_impl_data" }
%"struct.std::_Vector_base<std::__cxx11::basic_string<char>, std::allocator<std::__cxx11::basic_string<char>>>::_Vector_impl_data" = type { ptr, ptr, ptr }
%"class.llvm::SmallSetVector" = type { %"class.llvm::SetVector.254" }
%"class.llvm::SetVector.254" = type { %"class.llvm::DenseSet", %"class.llvm::SmallVector.258" }
%"class.llvm::DenseSet" = type { %"class.llvm::detail::DenseSetImpl" }
%"class.llvm::detail::DenseSetImpl" = type { %"class.llvm::DenseMap.255" }
%"class.llvm::DenseMap.255" = type <{ ptr, i32, i32, i32, [4 x i8] }>
%"class.llvm::SmallVector.258" = type { %"class.llvm::SmallVectorImpl.259", %"struct.llvm::SmallVectorStorage.262" }
%"class.llvm::SmallVectorImpl.259" = type { %"class.llvm::SmallVectorTemplateBase.260" }
%"class.llvm::SmallVectorTemplateBase.260" = type { %"class.llvm::SmallVectorTemplateCommon.261" }
%"class.llvm::SmallVectorTemplateCommon.261" = type { %"class.llvm::SmallVectorBase" }
%"struct.llvm::SmallVectorStorage.262" = type { [128 x i8] }
%"class.llvm::DenseMap.263" = type <{ ptr, i32, i32, i32, [4 x i8] }>
%"class.llvm::DenseMap.289" = type <{ ptr, i32, i32, i32, [4 x i8] }>
%"class.llvm::DenseMap.292" = type <{ ptr, i32, i32, i32, [4 x i8] }>
%"class.llvm::SmallVector.295" = type { %"class.llvm::SmallVectorImpl.296", %"struct.llvm::SmallVectorStorage.299" }
%"class.llvm::SmallVectorImpl.296" = type { %"class.llvm::SmallVectorTemplateBase.297" }
%"class.llvm::SmallVectorTemplateBase.297" = type { %"class.llvm::SmallVectorTemplateCommon.298" }
%"class.llvm::SmallVectorTemplateCommon.298" = type { %"class.llvm::SmallVectorBase" }
%"struct.llvm::SmallVectorStorage.299" = type { [16 x i8] }
%"class.llvm::DwarfFile" = type { ptr, %"class.llvm::BumpPtrAllocatorImpl", %"class.llvm::DIEAbbrevSet", %"class.llvm::SmallVector.271", %"class.llvm::DwarfStringPool", %"class.llvm::SmallVector.278", ptr, ptr, %"class.llvm::DenseMap.283", %"class.llvm::DenseMap.286", %"class.llvm::DenseMap.37", %"class.llvm::DenseMap.40", %"class.llvm::DenseMap" }
%"class.llvm::DIEAbbrevSet" = type { ptr, %"class.llvm::FoldingSet", %"class.std::vector.266" }
%"class.llvm::FoldingSet" = type { %"class.llvm::FoldingSetImpl" }
%"class.llvm::FoldingSetImpl" = type { %"class.llvm::FoldingSetBase" }
%"class.llvm::FoldingSetBase" = type { ptr, i32, i32 }
%"class.std::vector.266" = type { %"struct.std::_Vector_base.267" }
%"struct.std::_Vector_base.267" = type { %"struct.std::_Vector_base<llvm::DIEAbbrev *, std::allocator<llvm::DIEAbbrev *>>::_Vector_impl" }
%"struct.std::_Vector_base<llvm::DIEAbbrev *, std::allocator<llvm::DIEAbbrev *>>::_Vector_impl" = type { %"struct.std::_Vector_base<llvm::DIEAbbrev *, std::allocator<llvm::DIEAbbrev *>>::_Vector_impl_data" }
%"struct.std::_Vector_base<llvm::DIEAbbrev *, std::allocator<llvm::DIEAbbrev *>>::_Vector_impl_data" = type { ptr, ptr, ptr }
%"class.llvm::SmallVector.271" = type { %"class.llvm::SmallVectorImpl.272", %"struct.llvm::SmallVectorStorage.275" }
%"class.llvm::SmallVectorImpl.272" = type { %"class.llvm::SmallVectorTemplateBase.273" }
%"class.llvm::SmallVectorTemplateBase.273" = type { %"class.llvm::SmallVectorTemplateCommon.274" }
%"class.llvm::SmallVectorTemplateCommon.274" = type { %"class.llvm::SmallVectorBase" }
%"struct.llvm::SmallVectorStorage.275" = type { [8 x i8] }
%"class.llvm::DwarfStringPool" = type <{ %"class.llvm::StringMap.276", %"class.llvm::StringRef", i64, i32, i8, [3 x i8] }>
%"class.llvm::StringMap.276" = type { %"class.llvm::StringMapImpl", %"class.llvm::detail::AllocatorHolder.277" }
%"class.llvm::detail::AllocatorHolder.277" = type { ptr }
%"class.llvm::SmallVector.278" = type { %"class.llvm::SmallVectorImpl.279", %"struct.llvm::SmallVectorStorage.282" }
%"class.llvm::SmallVectorImpl.279" = type { %"class.llvm::SmallVectorTemplateBase.280" }
%"class.llvm::SmallVectorTemplateBase.280" = type { %"class.llvm::SmallVectorTemplateCommon.281" }
%"class.llvm::SmallVectorTemplateCommon.281" = type { %"class.llvm::SmallVectorBase" }
%"struct.llvm::SmallVectorStorage.282" = type { [64 x i8] }
%"class.llvm::DenseMap.283" = type <{ ptr, i32, i32, i32, [4 x i8] }>
%"class.llvm::DenseMap.286" = type <{ ptr, i32, i32, i32, [4 x i8] }>
%"class.llvm::MCDwarfDwoLineTable" = type { %"struct.llvm::MCDwarfLineTableHeader", i8, [7 x i8] }
%"struct.llvm::MCDwarfLineTableHeader" = type <{ ptr, %"class.llvm::SmallVector.300", %"class.llvm::SmallVector.305", %"class.llvm::StringMap.310", %"class.std::__cxx11::basic_string", %"struct.llvm::MCDwarfFile", i8, i8, i8, [5 x i8] }>
%"class.llvm::SmallVector.300" = type { %"class.llvm::SmallVectorImpl.301", %"struct.llvm::SmallVectorStorage.304" }
%"class.llvm::SmallVectorImpl.301" = type { %"class.llvm::SmallVectorTemplateBase.302" }
%"class.llvm::SmallVectorTemplateBase.302" = type { %"class.llvm::SmallVectorTemplateCommon.303" }
%"class.llvm::SmallVectorTemplateCommon.303" = type { %"class.llvm::SmallVectorBase" }
%"struct.llvm::SmallVectorStorage.304" = type { [96 x i8] }
%"class.llvm::SmallVector.305" = type { %"class.llvm::SmallVectorImpl.306", %"struct.llvm::SmallVectorStorage.309" }
%"class.llvm::SmallVectorImpl.306" = type { %"class.llvm::SmallVectorTemplateBase.307" }
%"class.llvm::SmallVectorTemplateBase.307" = type { %"class.llvm::SmallVectorTemplateCommon.308" }
%"class.llvm::SmallVectorTemplateCommon.308" = type { %"class.llvm::SmallVectorBase" }
%"struct.llvm::SmallVectorStorage.309" = type { [240 x i8] }
%"class.llvm::StringMap.310" = type { %"class.llvm::StringMapImpl" }
%"class.std::__cxx11::basic_string" = type { %"struct.std::__cxx11::basic_string<char>::_Alloc_hider", i64, %union.anon }
%"struct.std::__cxx11::basic_string<char>::_Alloc_hider" = type { ptr }
%union.anon = type { i64, [8 x i8] }
%"struct.llvm::MCDwarfFile" = type { %"class.std::__cxx11::basic_string", i32, %"class.std::optional", [3 x i8], %"class.std::optional.314" }
%"class.std::optional" = type { %"struct.std::_Optional_base" }
%"struct.std::_Optional_base" = type { %"struct.std::_Optional_payload" }
%"struct.std::_Optional_payload" = type { %"struct.std::_Optional_payload_base" }
%"struct.std::_Optional_payload_base" = type { %"union.std::_Optional_payload_base<llvm::MD5::MD5Result>::_Storage", i8 }
%"union.std::_Optional_payload_base<llvm::MD5::MD5Result>::_Storage" = type { %"struct.llvm::MD5::MD5Result" }
%"struct.llvm::MD5::MD5Result" = type { %"struct.std::array" }
%"struct.std::array" = type { [16 x i8] }
%"class.std::optional.314" = type { %"struct.std::_Optional_base.315" }
%"struct.std::_Optional_base.315" = type { %"struct.std::_Optional_payload.317" }
%"struct.std::_Optional_payload.317" = type { %"struct.std::_Optional_payload_base.base", [7 x i8] }
%"struct.std::_Optional_payload_base.base" = type <{ %"union.std::_Optional_payload_base<llvm::StringRef>::_Storage", i8 }>
%"union.std::_Optional_payload_base<llvm::StringRef>::_Storage" = type { %"class.llvm::StringRef" }
%"class.llvm::DenseMap.320" = type <{ ptr, i32, i32, i32, [4 x i8] }>
%"class.llvm::AddressPool" = type { %"class.llvm::DenseMap.323", i8, ptr }
%"class.llvm::DenseMap.323" = type <{ ptr, i32, i32, i32, [4 x i8] }>
%"class.llvm::DWARF5AccelTable" = type { %"class.llvm::AccelTable", %"class.llvm::SmallVector.345" }
%"class.llvm::AccelTable" = type { %"class.llvm::AccelTableBase" }
%"class.llvm::AccelTableBase" = type { %"class.llvm::BumpPtrAllocatorImpl", %"class.llvm::MapVector.326", ptr, i32, i32, %"class.std::vector.335", %"class.std::vector.340" }
%"class.llvm::MapVector.326" = type { %"class.llvm::DenseMap.327", %"class.llvm::SmallVector.330" }
%"class.llvm::DenseMap.327" = type <{ ptr, i32, i32, i32, [4 x i8] }>
%"class.llvm::SmallVector.330" = type { %"class.llvm::SmallVectorImpl.331" }
%"class.llvm::SmallVectorImpl.331" = type { %"class.llvm::SmallVectorTemplateBase.332" }
%"class.llvm::SmallVectorTemplateBase.332" = type { %"class.llvm::SmallVectorTemplateCommon.333" }
%"class.llvm::SmallVectorTemplateCommon.333" = type { %"class.llvm::SmallVectorBase" }
%"class.std::vector.335" = type { %"struct.std::_Vector_base.336" }
%"struct.std::_Vector_base.336" = type { %"struct.std::_Vector_base<llvm::AccelTableBase::HashData *, std::allocator<llvm::AccelTableBase::HashData *>>::_Vector_impl" }
%"struct.std::_Vector_base<llvm::AccelTableBase::HashData *, std::allocator<llvm::AccelTableBase::HashData *>>::_Vector_impl" = type { %"struct.std::_Vector_base<llvm::AccelTableBase::HashData *, std::allocator<llvm::AccelTableBase::HashData *>>::_Vector_impl_data" }
%"struct.std::_Vector_base<llvm::AccelTableBase::HashData *, std::allocator<llvm::AccelTableBase::HashData *>>::_Vector_impl_data" = type { ptr, ptr, ptr }
%"class.std::vector.340" = type { %"struct.std::_Vector_base.341" }
%"struct.std::_Vector_base.341" = type { %"struct.std::_Vector_base<std::vector<llvm::AccelTableBase::HashData *>, std::allocator<std::vector<llvm::AccelTableBase::HashData *>>>::_Vector_impl" }
%"struct.std::_Vector_base<std::vector<llvm::AccelTableBase::HashData *>, std::allocator<std::vector<llvm::AccelTableBase::HashData *>>>::_Vector_impl" = type { %"struct.std::_Vector_base<std::vector<llvm::AccelTableBase::HashData *>, std::allocator<std::vector<llvm::AccelTableBase::HashData *>>>::_Vector_impl_data" }
%"struct.std::_Vector_base<std::vector<llvm::AccelTableBase::HashData *>, std::allocator<std::vector<llvm::AccelTableBase::HashData *>>>::_Vector_impl_data" = type { ptr, ptr, ptr }
%"class.llvm::SmallVector.345" = type { %"class.llvm::SmallVectorImpl.346", %"struct.llvm::SmallVectorStorage.349" }
%"class.llvm::SmallVectorImpl.346" = type { %"class.llvm::SmallVectorTemplateBase.347" }
%"class.llvm::SmallVectorTemplateBase.347" = type { %"class.llvm::SmallVectorTemplateCommon.348" }
%"class.llvm::SmallVectorTemplateCommon.348" = type { %"class.llvm::SmallVectorBase" }
%"struct.llvm::SmallVectorStorage.349" = type { [24 x i8] }
%"class.llvm::AccelTable.350" = type { %"class.llvm::AccelTableBase" }
%"class.llvm::AccelTable.351" = type { %"class.llvm::AccelTableBase" }

; Function Attrs: mustprogress nounwind uwtable
define linkonce_odr hidden noundef zeroext i1 @_ZNK4llvm10DwarfDebug11tuneForLLDBEv(ptr noundef nonnull align 8 dereferenceable(5828) %0) #1 comdat align 2 {
  %2 = alloca ptr, align 8
  store ptr %0, ptr %2, align 8
  %3 = load ptr, ptr %2, align 8
  %4 = getelementptr inbounds nuw %"class.llvm::DwarfDebug", ptr %3, i32 0, i32 51
  %5 = load i32, ptr %4, align 8
  %6 = icmp eq i32 %5, 2
  ret i1 %6
}

; Function Attrs: mustprogress nounwind uwtable
define dso_local noundef zeroext i1 @_ZNK4llvm16DwarfCompileUnit28useGNUAnalogForDwarf5FeatureEv(ptr noundef nonnull align 8 dereferenceable(696) %0) #1 align 2 {
  %2 = alloca ptr, align 8
  store ptr %0, ptr %2, align 8
  %3 = load ptr, ptr %2, align 8
  %4 = getelementptr inbounds nuw %"class.llvm::DwarfUnit", ptr %3, i32 0, i32 7
  %5 = load ptr, ptr %4, align 8
  %6 = call noundef zeroext i16 @_ZNK4llvm10DwarfDebug15getDwarfVersionEv(ptr noundef nonnull align 8 dereferenceable(5828) %5)
  %7 = zext i16 %6 to i32
  %8 = icmp eq i32 %7, 4
  br i1 %8, label %9, label %14

9:                                                ; preds = %1
  %10 = getelementptr inbounds nuw %"class.llvm::DwarfUnit", ptr %3, i32 0, i32 7
  %11 = load ptr, ptr %10, align 8
  %12 = call noundef zeroext i1 @_ZNK4llvm10DwarfDebug11tuneForLLDBEv(ptr noundef nonnull align 8 dereferenceable(5828) %11)
  %13 = xor i1 %12, true
  br label %14

14:                                               ; preds = %9, %1
  %15 = phi i1 [ false, %1 ], [ %13, %9 ]
  ret i1 %15
}